target datalayout = "e-m:e-p270:32:32-p271:32:32-p272:64:64-i64:64-i128:128-f80:128-n8:16:32:64-S128"
target triple = "x86_64-pc-linux-gnu"

%struct.JNINativeInterface_ = type { ptr, ptr, ptr, ptr, ptr, ptr, ptr, ptr, ptr, ptr, ptr, ptr, ptr, ptr, ptr, ptr, ptr, ptr, ptr, ptr, ptr, ptr, ptr, ptr, ptr, ptr, ptr, ptr, ptr, ptr, ptr, ptr, ptr, ptr, ptr, ptr, ptr, ptr, ptr, ptr, ptr, ptr, ptr, ptr, ptr, ptr, ptr, ptr, ptr, ptr, ptr, ptr, ptr, ptr, ptr, ptr, ptr, ptr, ptr, ptr, ptr, ptr, ptr, ptr, ptr, ptr, ptr, ptr, ptr, ptr, ptr, ptr, ptr, ptr, ptr, ptr, ptr, ptr, ptr, ptr, ptr, ptr, ptr, ptr, ptr, ptr, ptr, ptr, ptr, ptr, ptr, ptr, ptr, ptr, ptr, ptr, ptr, ptr, ptr, ptr, ptr, ptr, ptr, ptr, ptr, ptr, ptr, ptr, ptr, ptr, ptr, ptr, ptr, ptr, ptr, ptr, ptr, ptr, ptr, ptr, ptr, ptr, ptr, ptr, ptr, ptr, ptr, ptr, ptr, ptr, ptr, ptr, ptr, ptr, ptr, ptr, ptr, ptr, ptr, ptr, ptr, ptr, ptr, ptr, ptr, ptr, ptr, ptr, ptr, ptr, ptr, ptr, ptr, ptr, ptr, ptr, ptr, ptr, ptr, ptr, ptr, ptr, ptr, ptr, ptr, ptr, ptr, ptr, ptr, ptr, ptr, ptr, ptr, ptr, ptr, ptr, ptr, ptr, ptr, ptr, ptr, ptr, ptr, ptr, ptr, ptr, ptr, ptr, ptr, ptr, ptr, ptr, ptr, ptr, ptr, ptr, ptr, ptr, ptr, ptr, ptr, ptr, ptr, ptr, ptr, ptr, ptr, ptr, ptr, ptr, ptr, ptr, ptr, ptr, ptr, ptr, ptr, ptr, ptr, ptr, ptr, ptr, ptr, ptr, ptr, ptr, ptr, ptr, ptr, ptr, ptr, ptr, ptr, ptr, ptr }
%struct.CK_RSA_PKCS_OAEP_PARAMS = type { i64, i64, i64, ptr, i64 }

@.str.17 = private unnamed_addr constant [2 x i8] c"J\00", align 1
@.str.24 = private unnamed_addr constant [3 x i8] c"[B\00", align 1
@.str.64 = private unnamed_addr constant [52 x i8] c"sun/security/pkcs11/wrapper/CK_RSA_PKCS_OAEP_PARAMS\00", align 1
@.str.65 = private unnamed_addr constant [8 x i8] c"hashAlg\00", align 1
@.str.66 = private unnamed_addr constant [4 x i8] c"mgf\00", align 1
@.str.67 = private unnamed_addr constant [7 x i8] c"source\00", align 1
@.str.68 = private unnamed_addr constant [12 x i8] c"pSourceData\00", align 1

; Function Attrs: nounwind uwtable
define hidden ptr @jRsaPkcsOaepParamToCKRsaPkcsOaepParamPtr(ptr noundef %0, ptr noundef %1, ptr noundef %2) #0 {
  %4 = alloca ptr, align 8
  %5 = alloca ptr, align 8
  %6 = alloca ptr, align 8
  %7 = alloca ptr, align 8
  %8 = alloca ptr, align 8
  %9 = alloca ptr, align 8
  %10 = alloca ptr, align 8
  %11 = alloca i64, align 8
  %12 = alloca i64, align 8
  %13 = alloca i64, align 8
  %14 = alloca ptr, align 8
  store ptr %0, ptr %5, align 8
  store ptr %1, ptr %6, align 8
  store ptr %2, ptr %7, align 8
  %15 = load ptr, ptr %7, align 8
  %16 = icmp ne ptr %15, null
  br i1 %16, label %17, label %19

17:                                               ; preds = %3
  %18 = load ptr, ptr %7, align 8
  store i64 0, ptr %18, align 8
  br label %19

19:                                               ; preds = %17, %3
  %20 = load ptr, ptr %5, align 8
  %21 = load ptr, ptr %20, align 8
  %22 = getelementptr inbounds %struct.JNINativeInterface_, ptr %21, i32 0, i32 6
  %23 = load ptr, ptr %22, align 8
  %24 = load ptr, ptr %5, align 8
  %25 = call ptr %23(ptr noundef %24, ptr noundef @.str.64)
  store ptr %25, ptr %9, align 8
  %26 = load ptr, ptr %9, align 8
  %27 = icmp eq ptr %26, null
  br i1 %27, label %28, label %29

28:                                               ; preds = %19
  store ptr null, ptr %4, align 8
  br label %143

29:                                               ; preds = %19
  %30 = load ptr, ptr %5, align 8
  %31 = load ptr, ptr %30, align 8
  %32 = getelementptr inbounds %struct.JNINativeInterface_, ptr %31, i32 0, i32 94
  %33 = load ptr, ptr %32, align 8
  %34 = load ptr, ptr %5, align 8
  %35 = load ptr, ptr %9, align 8
  %36 = call ptr %33(ptr noundef %34, ptr noundef %35, ptr noundef @.str.65, ptr noundef @.str.17)
  store ptr %36, ptr %10, align 8
  %37 = load ptr, ptr %10, align 8
  %38 = icmp eq ptr %37, null
  br i1 %38, label %39, label %40

39:                                               ; preds = %29
  store ptr null, ptr %4, align 8
  br label %143

40:                                               ; preds = %29
  %41 = load ptr, ptr %5, align 8
  %42 = load ptr, ptr %41, align 8
  %43 = getelementptr inbounds %struct.JNINativeInterface_, ptr %42, i32 0, i32 101
  %44 = load ptr, ptr %43, align 8
  %45 = load ptr, ptr %5, align 8
  %46 = load ptr, ptr %6, align 8
  %47 = load ptr, ptr %10, align 8
  %48 = call i64 %44(ptr noundef %45, ptr noundef %46, ptr noundef %47)
  store i64 %48, ptr %11, align 8
  %49 = load ptr, ptr %5, align 8
  %50 = load ptr, ptr %49, align 8
  %51 = getelementptr inbounds %struct.JNINativeInterface_, ptr %50, i32 0, i32 94
  %52 = load ptr, ptr %51, align 8
  %53 = load ptr, ptr %5, align 8
  %54 = load ptr, ptr %9, align 8
  %55 = call ptr %52(ptr noundef %53, ptr noundef %54, ptr noundef @.str.66, ptr noundef @.str.17)
  store ptr %55, ptr %10, align 8
  %56 = load ptr, ptr %10, align 8
  %57 = icmp eq ptr %56, null
  br i1 %57, label %58, label %59

58:                                               ; preds = %40
  store ptr null, ptr %4, align 8
  br label %143

59:                                               ; preds = %40
  %60 = load ptr, ptr %5, align 8
  %61 = load ptr, ptr %60, align 8
  %62 = getelementptr inbounds %struct.JNINativeInterface_, ptr %61, i32 0, i32 101
  %63 = load ptr, ptr %62, align 8
  %64 = load ptr, ptr %5, align 8
  %65 = load ptr, ptr %6, align 8
  %66 = load ptr, ptr %10, align 8
  %67 = call i64 %63(ptr noundef %64, ptr noundef %65, ptr noundef %66)
  store i64 %67, ptr %12, align 8
  %68 = load ptr, ptr %5, align 8
  %69 = load ptr, ptr %68, align 8
  %70 = getelementptr inbounds %struct.JNINativeInterface_, ptr %69, i32 0, i32 94
  %71 = load ptr, ptr %70, align 8
  %72 = load ptr, ptr %5, align 8
  %73 = load ptr, ptr %9, align 8
  %74 = call ptr %71(ptr noundef %72, ptr noundef %73, ptr noundef @.str.67, ptr noundef @.str.17)
  store ptr %74, ptr %10, align 8
  %75 = load ptr, ptr %10, align 8
  %76 = icmp eq ptr %75, null
  br i1 %76, label %77, label %78

77:                                               ; preds = %59
  store ptr null, ptr %4, align 8
  br label %143

78:                                               ; preds = %59
  %79 = load ptr, ptr %5, align 8
  %80 = load ptr, ptr %79, align 8
  %81 = getelementptr inbounds %struct.JNINativeInterface_, ptr %80, i32 0, i32 101
  %82 = load ptr, ptr %81, align 8
  %83 = load ptr, ptr %5, align 8
  %84 = load ptr, ptr %6, align 8
  %85 = load ptr, ptr %10, align 8
  %86 = call i64 %82(ptr noundef %83, ptr noundef %84, ptr noundef %85)
  store i64 %86, ptr %13, align 8
  %87 = load ptr, ptr %5, align 8
  %88 = load ptr, ptr %87, align 8
  %89 = getelementptr inbounds %struct.JNINativeInterface_, ptr %88, i32 0, i32 94
  %90 = load ptr, ptr %89, align 8
  %91 = load ptr, ptr %5, align 8
  %92 = load ptr, ptr %9, align 8
  %93 = call ptr %90(ptr noundef %91, ptr noundef %92, ptr noundef @.str.68, ptr noundef @.str.24)
  store ptr %93, ptr %10, align 8
  %94 = load ptr, ptr %10, align 8
  %95 = icmp eq ptr %94, null
  br i1 %95, label %96, label %97

96:                                               ; preds = %78
  store ptr null, ptr %4, align 8
  br label %143

97:                                               ; preds = %78
  %98 = load ptr, ptr %5, align 8
  %99 = load ptr, ptr %98, align 8
  %100 = getelementptr inbounds %struct.JNINativeInterface_, ptr %99, i32 0, i32 95
  %101 = load ptr, ptr %100, align 8
  %102 = load ptr, ptr %5, align 8
  %103 = load ptr, ptr %6, align 8
  %104 = load ptr, ptr %10, align 8
  %105 = call ptr %101(ptr noundef %102, ptr noundef %103, ptr noundef %104)
  store ptr %105, ptr %14, align 8
  %106 = call noalias ptr @calloc(i64 noundef 1, i64 noundef 40) #6
  store ptr %106, ptr %8, align 8
  %107 = load ptr, ptr %8, align 8
  %108 = icmp eq ptr %107, null
  br i1 %108, label %109, label %111

109:                                              ; preds = %97
  %110 = load ptr, ptr %5, align 8
  call void @p11ThrowOutOfMemoryError(ptr noundef %110, ptr noundef null)
  store ptr null, ptr %4, align 8
  br label %143

111:                                              ; preds = %97
  %112 = load i64, ptr %11, align 8
  %113 = load ptr, ptr %8, align 8
  %114 = getelementptr inbounds %struct.CK_RSA_PKCS_OAEP_PARAMS, ptr %113, i32 0, i32 0
  store i64 %112, ptr %114, align 8
  %115 = load i64, ptr %12, align 8
  %116 = load ptr, ptr %8, align 8
  %117 = getelementptr inbounds %struct.CK_RSA_PKCS_OAEP_PARAMS, ptr %116, i32 0, i32 1
  store i64 %115, ptr %117, align 8
  %118 = load i64, ptr %13, align 8
  %119 = load ptr, ptr %8, align 8
  %120 = getelementptr inbounds %struct.CK_RSA_PKCS_OAEP_PARAMS, ptr %119, i32 0, i32 2
  store i64 %118, ptr %120, align 8
  %121 = load ptr, ptr %5, align 8
  %122 = load ptr, ptr %14, align 8
  %123 = load ptr, ptr %8, align 8
  %124 = getelementptr inbounds %struct.CK_RSA_PKCS_OAEP_PARAMS, ptr %123, i32 0, i32 3
  %125 = load ptr, ptr %8, align 8
  %126 = getelementptr inbounds %struct.CK_RSA_PKCS_OAEP_PARAMS, ptr %125, i32 0, i32 4
  call void @jByteArrayToCKByteArray(ptr noundef %121, ptr noundef %122, ptr noundef %124, ptr noundef %126)
  %127 = load ptr, ptr %5, align 8
  %128 = load ptr, ptr %127, align 8
  %129 = getelementptr inbounds %struct.JNINativeInterface_, ptr %128, i32 0, i32 228
  %130 = load ptr, ptr %129, align 8
  %131 = load ptr, ptr %5, align 8
  %132 = call zeroext i8 %130(ptr noundef %131)
  %133 = icmp ne i8 %132, 0
  br i1 %133, label %134, label %136

134:                                              ; preds = %111
  %135 = load ptr, ptr %8, align 8
  call void @free(ptr noundef %135) #7
  store ptr null, ptr %4, align 8
  br label %143

136:                                              ; preds = %111
  %137 = load ptr, ptr %7, align 8
  %138 = icmp ne ptr %137, null
  br i1 %138, label %139, label %141

139:                                              ; preds = %136
  %140 = load ptr, ptr %7, align 8
  store i64 40, ptr %140, align 8
  br label %141

141:                                              ; preds = %139, %136
  %142 = load ptr, ptr %8, align 8
  store ptr %142, ptr %4, align 8
  br label %143

143:                                              ; preds = %141, %134, %109, %96, %77, %58, %39, %28
  %144 = load ptr, ptr %4, align 8
  ret ptr %144
}