; Function Attrs: nounwind uwtable
define hidden noundef ptr @jRsaPkcsOaepParamToCKRsaPkcsOaepParamPtr(ptr noundef %0, ptr noundef %1, ptr noundef writeonly %2) local_unnamed_addr #0 {
  %.not = icmp eq ptr %2, null
  br i1 %.not, label %5, label %4

4:                                                ; preds = %3
  store i64 0, ptr %2, align 8
  br label %5

5:                                                ; preds = %4, %3
  %6 = load ptr, ptr %0, align 8
  %7 = getelementptr inbounds i8, ptr %6, i64 48
  %8 = load ptr, ptr %7, align 8
  %9 = tail call ptr %8(ptr noundef nonnull %0, ptr noundef nonnull @.str.64) #8
  %10 = icmp eq ptr %9, null
  br i1 %10, label %67, label %11

11:                                               ; preds = %5
  %12 = load ptr, ptr %0, align 8
  %13 = getelementptr inbounds i8, ptr %12, i64 752
  %14 = load ptr, ptr %13, align 8
  %15 = tail call ptr %14(ptr noundef nonnull %0, ptr noundef nonnull %9, ptr noundef nonnull @.str.65, ptr noundef nonnull @.str.17) #8
  %16 = icmp eq ptr %15, null
  br i1 %16, label %67, label %17

17:                                               ; preds = %11
  %18 = load ptr, ptr %0, align 8
  %19 = getelementptr inbounds i8, ptr %18, i64 808
  %20 = load ptr, ptr %19, align 8
  %21 = tail call i64 %20(ptr noundef nonnull %0, ptr noundef %1, ptr noundef nonnull %15) #8
  %22 = load ptr, ptr %0, align 8
  %23 = getelementptr inbounds i8, ptr %22, i64 752
  %24 = load ptr, ptr %23, align 8
  %25 = tail call ptr %24(ptr noundef nonnull %0, ptr noundef nonnull %9, ptr noundef nonnull @.str.66, ptr noundef nonnull @.str.17) #8
  %26 = icmp eq ptr %25, null
  br i1 %26, label %67, label %27

27:                                               ; preds = %17
  %28 = load ptr, ptr %0, align 8
  %29 = getelementptr inbounds i8, ptr %28, i64 808
  %30 = load ptr, ptr %29, align 8
  %31 = tail call i64 %30(ptr noundef nonnull %0, ptr noundef %1, ptr noundef nonnull %25) #8
  %32 = load ptr, ptr %0, align 8
  %33 = getelementptr inbounds i8, ptr %32, i64 752
  %34 = load ptr, ptr %33, align 8
  %35 = tail call ptr %34(ptr noundef nonnull %0, ptr noundef nonnull %9, ptr noundef nonnull @.str.67, ptr noundef nonnull @.str.17) #8
  %36 = icmp eq ptr %35, null
  br i1 %36, label %67, label %37

37:                                               ; preds = %27
  %38 = load ptr, ptr %0, align 8
  %39 = getelementptr inbounds i8, ptr %38, i64 808
  %40 = load ptr, ptr %39, align 8
  %41 = tail call i64 %40(ptr noundef nonnull %0, ptr noundef %1, ptr noundef nonnull %35) #8
  %42 = load ptr, ptr %0, align 8
  %43 = getelementptr inbounds i8, ptr %42, i64 752
  %44 = load ptr, ptr %43, align 8
  %45 = tail call ptr %44(ptr noundef nonnull %0, ptr noundef nonnull %9, ptr noundef nonnull @.str.68, ptr noundef nonnull @.str.24) #8
  %46 = icmp eq ptr %45, null
  br i1 %46, label %67, label %47

47:                                               ; preds = %37
  %48 = load ptr, ptr %0, align 8
  %49 = getelementptr inbounds i8, ptr %48, i64 760
  %50 = load ptr, ptr %49, align 8
  %51 = tail call ptr %50(ptr noundef nonnull %0, ptr noundef %1, ptr noundef nonnull %45) #8
  %52 = tail call noalias dereferenceable_or_null(40) ptr @calloc(i64 noundef 1, i64 noundef 40) #9
  %53 = icmp eq ptr %52, null
  br i1 %53, label %54, label %55

54:                                               ; preds = %47
  tail call void @p11ThrowOutOfMemoryError(ptr noundef nonnull %0, ptr noundef null) #8
  br label %67

55:                                               ; preds = %47
  store i64 %21, ptr %52, align 8
  %56 = getelementptr inbounds i8, ptr %52, i64 8
  store i64 %31, ptr %56, align 8
  %57 = getelementptr inbounds i8, ptr %52, i64 16
  store i64 %41, ptr %57, align 8
  %58 = getelementptr inbounds i8, ptr %52, i64 24
  %59 = getelementptr inbounds i8, ptr %52, i64 32
  tail call void @jByteArrayToCKByteArray(ptr noundef nonnull %0, ptr noundef %51, ptr noundef nonnull %58, ptr noundef nonnull %59) #8
  %60 = load ptr, ptr %0, align 8
  %61 = getelementptr inbounds i8, ptr %60, i64 1824
  %62 = load ptr, ptr %61, align 8
  %63 = tail call zeroext i8 %62(ptr noundef nonnull %0) #8
  %.not62 = icmp eq i8 %63, 0
  br i1 %.not62, label %65, label %64

64:                                               ; preds = %55
  tail call void @free(ptr noundef nonnull %52) #8
  br label %67

65:                                               ; preds = %55
  br i1 %.not, label %67, label %66

66:                                               ; preds = %65
  store i64 40, ptr %2, align 8
  br label %67

67:                                               ; preds = %65, %66, %37, %27, %17, %11, %5, %64, %54
  %.0 = phi ptr [ null, %54 ], [ null, %64 ], [ null, %5 ], [ null, %11 ], [ null, %17 ], [ null, %27 ], [ null, %37 ], [ %52, %66 ], [ %52, %65 ]
  ret ptr %.0
}